; Function Attrs: mustprogress nounwind uwtable
define dso_local void @_ZN4llvm16DWARFTypePrinter17appendTypeTagNameENS_5dwarf3TagE(ptr noundef nonnull readonly align 8 captures(none) dereferenceable(10) %0, i16 noundef zeroext %1) local_unnamed_addr #0 align 2 {
  %3 = zext i16 %1 to i32
  %4 = tail call { ptr, i64 } @_ZN4llvm5dwarf9TagStringEj(i32 noundef %3) #16
  %5 = extractvalue { ptr, i64 } %4, 0
  %6 = extractvalue { ptr, i64 } %4, 1
  %.not.i = icmp ult i64 %6, 7
  br i1 %.not.i, label %_ZN4llvm11raw_ostreamlsEPKc.exit, label %_ZNK4llvm9StringRef11starts_withES0_.exit

_ZNK4llvm9StringRef11starts_withES0_.exit:        ; preds = %2
  %bcmp.i = tail call i32 @bcmp(ptr noundef nonnull dereferenceable(7) %5, ptr noundef nonnull dereferenceable(7) @.str, i64 7)
  %7 = icmp eq i32 %bcmp.i, 0
  br i1 %7, label %_ZNK4llvm9StringRef9ends_withES0_.exit, label %_ZN4llvm11raw_ostreamlsEPKc.exit

_ZNK4llvm9StringRef9ends_withES0_.exit:           ; preds = %_ZNK4llvm9StringRef11starts_withES0_.exit
  %8 = getelementptr inbounds i8, ptr %5, i64 %6
  %9 = getelementptr inbounds i8, ptr %8, i64 -5
  %bcmp.i6 = tail call i32 @bcmp(ptr noundef nonnull dereferenceable(5) %9, ptr noundef nonnull dereferenceable(5) @.str.1, i64 5)
  %10 = icmp eq i32 %bcmp.i6, 0
  br i1 %10, label %11, label %_ZN4llvm11raw_ostreamlsEPKc.exit

11:                                               ; preds = %_ZNK4llvm9StringRef9ends_withES0_.exit
  %12 = load ptr, ptr %0, align 8
  %13 = add i64 %6, -12
  %14 = getelementptr inbounds nuw i8, ptr %5, i64 7
  %15 = add i64 %6, -7
  %.sroa.speculated.i = tail call i64 @llvm.umin.i64(i64 %15, i64 %13)
  %16 = getelementptr inbounds nuw i8, ptr %12, i64 24
  %17 = load ptr, ptr %16, align 8
  %18 = getelementptr inbounds nuw i8, ptr %12, i64 32
  %19 = load ptr, ptr %18, align 8
  %20 = ptrtoint ptr %17 to i64
  %21 = ptrtoint ptr %19 to i64
  %22 = sub i64 %20, %21
  %23 = icmp ugt i64 %.sroa.speculated.i, %22
  br i1 %23, label %24, label %26

24:                                               ; preds = %11
  %25 = tail call noundef nonnull align 8 dereferenceable(48) ptr @_ZN4llvm11raw_ostream5writeEPKcm(ptr noundef nonnull align 8 dereferenceable(48) %12, ptr noundef nonnull %14, i64 noundef %.sroa.speculated.i) #16
  %.phi.trans.insert = getelementptr inbounds nuw i8, ptr %25, i64 32
  %.pre = load ptr, ptr %.phi.trans.insert, align 8
  br label %_ZN4llvm11raw_ostreamlsENS_9StringRefE.exit

26:                                               ; preds = %11
  %.not.i7 = icmp eq i64 %.sroa.speculated.i, 0
  br i1 %.not.i7, label %_ZN4llvm11raw_ostreamlsENS_9StringRefE.exit, label %27

27:                                               ; preds = %26
  tail call void @llvm.memcpy.p0.p0.i64(ptr align 1 %19, ptr nonnull align 1 %14, i64 %.sroa.speculated.i, i1 false)
  %28 = load ptr, ptr %18, align 8
  %29 = getelementptr inbounds i8, ptr %28, i64 %.sroa.speculated.i
  store ptr %29, ptr %18, align 8
  br label %_ZN4llvm11raw_ostreamlsENS_9StringRefE.exit

_ZN4llvm11raw_ostreamlsENS_9StringRefE.exit:      ; preds = %24, %26, %27
  %30 = phi ptr [ %.pre, %24 ], [ %29, %27 ], [ %19, %26 ]
  %.0.i = phi ptr [ %25, %24 ], [ %12, %27 ], [ %12, %26 ]
  %31 = getelementptr inbounds nuw i8, ptr %.0.i, i64 24
  %32 = load ptr, ptr %31, align 8
  %33 = icmp eq ptr %32, %30
  br i1 %33, label %34, label %36

34:                                               ; preds = %_ZN4llvm11raw_ostreamlsENS_9StringRefE.exit
  %35 = tail call noundef nonnull align 8 dereferenceable(48) ptr @_ZN4llvm11raw_ostream5writeEPKcm(ptr noundef nonnull align 8 dereferenceable(48) %.0.i, ptr noundef nonnull @.str.2, i64 noundef 1) #16
  br label %_ZN4llvm11raw_ostreamlsEPKc.exit

36:                                               ; preds = %_ZN4llvm11raw_ostreamlsENS_9StringRefE.exit
  %37 = getelementptr inbounds nuw i8, ptr %.0.i, i64 32
  store i8 32, ptr %30, align 1
  %38 = load ptr, ptr %37, align 8
  %39 = getelementptr inbounds nuw i8, ptr %38, i64 1
  store ptr %39, ptr %37, align 8
  br label %_ZN4llvm11raw_ostreamlsEPKc.exit

_ZN4llvm11raw_ostreamlsEPKc.exit:                 ; preds = %2, %36, %34, %_ZNK4llvm9StringRef11starts_withES0_.exit, %_ZNK4llvm9StringRef9ends_withES0_.exit
  ret void
}